target datalayout = "e-m:e-p270:32:32-p271:32:32-p272:64:64-i64:64-i128:128-f80:128-n8:16:32:64-S128"
target triple = "x86_64-pc-linux-gnu"

%struct.nghttp2_map = type { ptr, ptr, i64, i64 }
%struct.nghttp2_map_bucket = type { i32, i32, ptr }

@.str.2 = private unnamed_addr constant [5 x i8] c"data\00", align 1
@.str.3 = private unnamed_addr constant [111 x i8] c"generated/home/dtcxzyw/WorkSpace/Projects/compilers/llvm-opt-benchmark/bench/nghttp2/nghttp2/lib/nghttp2_map.c\00", align 1
@__PRETTY_FUNCTION__.nghttp2_map_insert = private unnamed_addr constant [68 x i8] c"int nghttp2_map_insert(nghttp2_map *, nghttp2_map_key_type, void *)\00", align 1

; Function Attrs: nounwind uwtable
define internal void @map_bucket_swap(ptr noundef %0, ptr noundef %1) #0 {
  %3 = alloca ptr, align 8
  %4 = alloca ptr, align 8
  %5 = alloca %struct.nghttp2_map_bucket, align 8
  store ptr %0, ptr %3, align 8, !tbaa !17
  store ptr %1, ptr %4, align 8, !tbaa !17
  call void @llvm.lifetime.start.p0(i64 16, ptr %5) #7
  %6 = load ptr, ptr %3, align 8, !tbaa !17
  call void @llvm.memcpy.p0.p0.i64(ptr align 8 %5, ptr align 8 %6, i64 16, i1 false), !tbaa.struct !30
  %7 = load ptr, ptr %3, align 8, !tbaa !17
  %8 = load ptr, ptr %4, align 8, !tbaa !17
  call void @llvm.memcpy.p0.p0.i64(ptr align 8 %7, ptr align 8 %8, i64 16, i1 false), !tbaa.struct !30
  %9 = load ptr, ptr %4, align 8, !tbaa !17
  call void @llvm.memcpy.p0.p0.i64(ptr align 8 %9, ptr align 8 %5, i64 16, i1 false), !tbaa.struct !30
  call void @llvm.lifetime.end.p0(i64 16, ptr %5) #7
  ret void
}

; Function Attrs: nounwind uwtable
define internal i64 @hash(i32 noundef %0, i64 noundef %1) #0 {
  %3 = alloca i32, align 4
  %4 = alloca i64, align 8
  store i32 %0, ptr %3, align 4, !tbaa !21
  store i64 %1, ptr %4, align 8, !tbaa !16
  %5 = load i32, ptr %3, align 4, !tbaa !21
  %6 = mul i32 %5, -1640531527
  %7 = load i64, ptr %4, align 8, !tbaa !16
  %8 = sub i64 32, %7
  %9 = trunc i64 %8 to i32
  %10 = lshr i32 %6, %9
  %11 = zext i32 %10 to i64
  ret i64 %11
}

; Function Attrs: nounwind uwtable
define internal i32 @insert(ptr noundef %0, i64 noundef %1, i32 noundef %2, ptr noundef %3) #0 {
  %5 = alloca i32, align 4
  %6 = alloca ptr, align 8
  %7 = alloca i64, align 8
  %8 = alloca i32, align 4
  %9 = alloca ptr, align 8
  %10 = alloca i64, align 8
  %11 = alloca %struct.nghttp2_map_bucket, align 8
  %12 = alloca ptr, align 8
  %13 = alloca i64, align 8
  %14 = alloca i32, align 4
  store ptr %0, ptr %6, align 8, !tbaa !17
  store i64 %1, ptr %7, align 8, !tbaa !16
  store i32 %2, ptr %8, align 4, !tbaa !21
  store ptr %3, ptr %9, align 8, !tbaa !8
  call void @llvm.lifetime.start.p0(i64 8, ptr %10) #7
  %15 = load i32, ptr %8, align 4, !tbaa !21
  %16 = load i64, ptr %7, align 8, !tbaa !16
  %17 = call i64 @hash(i32 noundef %15, i64 noundef %16)
  store i64 %17, ptr %10, align 8, !tbaa !16
  call void @llvm.lifetime.start.p0(i64 16, ptr %11) #7
  %18 = getelementptr inbounds nuw %struct.nghttp2_map_bucket, ptr %11, i32 0, i32 0
  store i32 0, ptr %18, align 8, !tbaa !27
  %19 = getelementptr inbounds nuw %struct.nghttp2_map_bucket, ptr %11, i32 0, i32 1
  %20 = load i32, ptr %8, align 4, !tbaa !21
  store i32 %20, ptr %19, align 4, !tbaa !26
  %21 = getelementptr inbounds nuw %struct.nghttp2_map_bucket, ptr %11, i32 0, i32 2
  %22 = load ptr, ptr %9, align 8, !tbaa !8
  store ptr %22, ptr %21, align 8, !tbaa !18
  call void @llvm.lifetime.start.p0(i64 8, ptr %12) #7
  call void @llvm.lifetime.start.p0(i64 8, ptr %13) #7
  %23 = load i64, ptr %7, align 8, !tbaa !16
  %24 = trunc i64 %23 to i32
  %25 = shl i32 1, %24
  %26 = sub i32 %25, 1
  %27 = zext i32 %26 to i64
  store i64 %27, ptr %13, align 8, !tbaa !16
  br label %28

28:                                               ; preds = %55, %4
  %29 = load ptr, ptr %6, align 8, !tbaa !17
  %30 = load i64, ptr %10, align 8, !tbaa !16
  %31 = getelementptr inbounds nuw %struct.nghttp2_map_bucket, ptr %29, i64 %30
  store ptr %31, ptr %12, align 8, !tbaa !17
  %32 = load ptr, ptr %12, align 8, !tbaa !17
  %33 = getelementptr inbounds nuw %struct.nghttp2_map_bucket, ptr %32, i32 0, i32 2
  %34 = load ptr, ptr %33, align 8, !tbaa !18
  %35 = icmp eq ptr %34, null
  br i1 %35, label %36, label %38

36:                                               ; preds = %28
  %37 = load ptr, ptr %12, align 8, !tbaa !17
  call void @llvm.memcpy.p0.p0.i64(ptr align 8 %37, ptr align 8 %11, i64 16, i1 false), !tbaa.struct !30
  store i32 0, ptr %5, align 4
  store i32 1, ptr %14, align 4
  br label %63

38:                                               ; preds = %28
  %39 = getelementptr inbounds nuw %struct.nghttp2_map_bucket, ptr %11, i32 0, i32 0
  %40 = load i32, ptr %39, align 8, !tbaa !27
  %41 = load ptr, ptr %12, align 8, !tbaa !17
  %42 = getelementptr inbounds nuw %struct.nghttp2_map_bucket, ptr %41, i32 0, i32 0
  %43 = load i32, ptr %42, align 8, !tbaa !27
  %44 = icmp ugt i32 %40, %43
  br i1 %44, label %45, label %47

45:                                               ; preds = %38
  %46 = load ptr, ptr %12, align 8, !tbaa !17
  call void @map_bucket_swap(ptr noundef %46, ptr noundef %11)
  br label %55

47:                                               ; preds = %38
  %48 = load ptr, ptr %12, align 8, !tbaa !17
  %49 = getelementptr inbounds nuw %struct.nghttp2_map_bucket, ptr %48, i32 0, i32 1
  %50 = load i32, ptr %49, align 4, !tbaa !26
  %51 = load i32, ptr %8, align 4, !tbaa !21
  %52 = icmp eq i32 %50, %51
  br i1 %52, label %53, label %54

53:                                               ; preds = %47
  store i32 -501, ptr %5, align 4
  store i32 1, ptr %14, align 4
  br label %63

54:                                               ; preds = %47
  br label %55

55:                                               ; preds = %54, %45
  %56 = getelementptr inbounds nuw %struct.nghttp2_map_bucket, ptr %11, i32 0, i32 0
  %57 = load i32, ptr %56, align 8, !tbaa !27
  %58 = add i32 %57, 1
  store i32 %58, ptr %56, align 8, !tbaa !27
  %59 = load i64, ptr %10, align 8, !tbaa !16
  %60 = add i64 %59, 1
  %61 = load i64, ptr %13, align 8, !tbaa !16
  %62 = and i64 %60, %61
  store i64 %62, ptr %10, align 8, !tbaa !16
  br label %28

63:                                               ; preds = %53, %36
  call void @llvm.lifetime.end.p0(i64 8, ptr %13) #7
  call void @llvm.lifetime.end.p0(i64 8, ptr %12) #7
  call void @llvm.lifetime.end.p0(i64 16, ptr %11) #7
  call void @llvm.lifetime.end.p0(i64 8, ptr %10) #7
  %64 = load i32, ptr %5, align 4
  ret i32 %64
}

; Function Attrs: nounwind uwtable
define hidden i32 @nghttp2_map_insert(ptr noundef %0, i32 noundef %1, ptr noundef %2) #0 {
  %4 = alloca i32, align 4
  %5 = alloca ptr, align 8
  %6 = alloca i32, align 4
  %7 = alloca ptr, align 8
  %8 = alloca i32, align 4
  %9 = alloca i32, align 4
  store ptr %0, ptr %5, align 8, !tbaa !3
  store i32 %1, ptr %6, align 4, !tbaa !21
  store ptr %2, ptr %7, align 8, !tbaa !8
  call void @llvm.lifetime.start.p0(i64 4, ptr %8) #7
  %10 = load ptr, ptr %7, align 8, !tbaa !8
  %11 = icmp ne ptr %10, null
  br i1 %11, label %12, label %13

12:                                               ; preds = %3
  br label %14

13:                                               ; preds = %3
  call void @__assert_fail(ptr noundef @.str.2, ptr noundef @.str.3, i32 noundef 187, ptr noundef @__PRETTY_FUNCTION__.nghttp2_map_insert) #8
  unreachable

14:                                               ; preds = %12
  %15 = load ptr, ptr %5, align 8, !tbaa !3
  %16 = getelementptr inbounds nuw %struct.nghttp2_map, ptr %15, i32 0, i32 2
  %17 = load i64, ptr %16, align 8, !tbaa !15
  %18 = add i64 %17, 1
  %19 = mul i64 %18, 4
  %20 = load ptr, ptr %5, align 8, !tbaa !3
  %21 = getelementptr inbounds nuw %struct.nghttp2_map, ptr %20, i32 0, i32 3
  %22 = load i64, ptr %21, align 8, !tbaa !13
  %23 = trunc i64 %22 to i32
  %24 = shl i32 1, %23
  %25 = mul i32 %24, 3
  %26 = zext i32 %25 to i64
  %27 = icmp ugt i64 %19, %26
  br i1 %27, label %28, label %54

28:                                               ; preds = %14
  %29 = load ptr, ptr %5, align 8, !tbaa !3
  %30 = getelementptr inbounds nuw %struct.nghttp2_map, ptr %29, i32 0, i32 3
  %31 = load i64, ptr %30, align 8, !tbaa !13
  %32 = icmp ne i64 %31, 0
  br i1 %32, label %33, label %45

33:                                               ; preds = %28
  %34 = load ptr, ptr %5, align 8, !tbaa !3
  %35 = load ptr, ptr %5, align 8, !tbaa !3
  %36 = getelementptr inbounds nuw %struct.nghttp2_map, ptr %35, i32 0, i32 3
  %37 = load i64, ptr %36, align 8, !tbaa !13
  %38 = add i64 %37, 1
  %39 = call i32 @map_resize(ptr noundef %34, i64 noundef %38)
  store i32 %39, ptr %8, align 4, !tbaa !21
  %40 = load i32, ptr %8, align 4, !tbaa !21
  %41 = icmp ne i32 %40, 0
  br i1 %41, label %42, label %44

42:                                               ; preds = %33
  %43 = load i32, ptr %8, align 4, !tbaa !21
  store i32 %43, ptr %4, align 4
  store i32 1, ptr %9, align 4
  br label %73

44:                                               ; preds = %33
  br label %53

45:                                               ; preds = %28
  %46 = load ptr, ptr %5, align 8, !tbaa !3
  %47 = call i32 @map_resize(ptr noundef %46, i64 noundef 4)
  store i32 %47, ptr %8, align 4, !tbaa !21
  %48 = load i32, ptr %8, align 4, !tbaa !21
  %49 = icmp ne i32 %48, 0
  br i1 %49, label %50, label %52

50:                                               ; preds = %45
  %51 = load i32, ptr %8, align 4, !tbaa !21
  store i32 %51, ptr %4, align 4
  store i32 1, ptr %9, align 4
  br label %73

52:                                               ; preds = %45
  br label %53

53:                                               ; preds = %52, %44
  br label %54

54:                                               ; preds = %53, %14
  %55 = load ptr, ptr %5, align 8, !tbaa !3
  %56 = getelementptr inbounds nuw %struct.nghttp2_map, ptr %55, i32 0, i32 0
  %57 = load ptr, ptr %56, align 8, !tbaa !14
  %58 = load ptr, ptr %5, align 8, !tbaa !3
  %59 = getelementptr inbounds nuw %struct.nghttp2_map, ptr %58, i32 0, i32 3
  %60 = load i64, ptr %59, align 8, !tbaa !13
  %61 = load i32, ptr %6, align 4, !tbaa !21
  %62 = load ptr, ptr %7, align 8, !tbaa !8
  %63 = call i32 @insert(ptr noundef %57, i64 noundef %60, i32 noundef %61, ptr noundef %62)
  store i32 %63, ptr %8, align 4, !tbaa !21
  %64 = load i32, ptr %8, align 4, !tbaa !21
  %65 = icmp ne i32 %64, 0
  br i1 %65, label %66, label %68

66:                                               ; preds = %54
  %67 = load i32, ptr %8, align 4, !tbaa !21
  store i32 %67, ptr %4, align 4
  store i32 1, ptr %9, align 4
  br label %73

68:                                               ; preds = %54
  %69 = load ptr, ptr %5, align 8, !tbaa !3
  %70 = getelementptr inbounds nuw %struct.nghttp2_map, ptr %69, i32 0, i32 2
  %71 = load i64, ptr %70, align 8, !tbaa !15
  %72 = add i64 %71, 1
  store i64 %72, ptr %70, align 8, !tbaa !15
  store i32 0, ptr %4, align 4
  store i32 1, ptr %9, align 4
  br label %73

73:                                               ; preds = %68, %66, %50, %42
  call void @llvm.lifetime.end.p0(i64 4, ptr %8) #7
  %74 = load i32, ptr %4, align 4
  ret i32 %74
}