; Function Attrs: nounwind uwtable
define hidden range(i32 -901, 1) i32 @nghttp2_map_insert(ptr noundef captures(none) %0, i32 noundef %1, ptr noundef %2) local_unnamed_addr #1 {
  %.not = icmp eq ptr %2, null
  br i1 %.not, label %4, label %5

4:                                                ; preds = %3
  tail call void @__assert_fail(ptr noundef nonnull @.str.2, ptr noundef nonnull @.str.3, i32 noundef 187, ptr noundef nonnull @__PRETTY_FUNCTION__.nghttp2_map_insert) #14
  unreachable

5:                                                ; preds = %3
  %6 = getelementptr inbounds nuw i8, ptr %0, i64 16
  %7 = load i64, ptr %6, align 8, !tbaa !11
  %8 = shl i64 %7, 2
  %9 = add i64 %8, 4
  %10 = getelementptr inbounds nuw i8, ptr %0, i64 24
  %11 = load i64, ptr %10, align 8, !tbaa !12
  %12 = trunc i64 %11 to i32
  %13 = shl i32 3, %12
  %14 = zext i32 %13 to i64
  %15 = icmp ugt i64 %9, %14
  br i1 %15, label %16, label %22

16:                                               ; preds = %5
  %.not23 = icmp eq i64 %11, 0
  br i1 %.not23, label %20, label %17

17:                                               ; preds = %16
  %18 = add i64 %11, 1
  %19 = tail call fastcc i32 @map_resize(ptr noundef nonnull %0, i64 noundef %18)
  %.not25 = icmp eq i32 %19, 0
  br i1 %.not25, label %22, label %insert.exit

20:                                               ; preds = %16
  %21 = tail call fastcc i32 @map_resize(ptr noundef nonnull %0, i64 noundef 4)
  %.not24 = icmp eq i32 %21, 0
  br i1 %.not24, label %22, label %insert.exit

22:                                               ; preds = %17, %20, %5
  %23 = load ptr, ptr %0, align 8, !tbaa !10
  %24 = load i64, ptr %10, align 8, !tbaa !12
  %25 = mul i32 %1, -1640531527
  %26 = trunc i64 %24 to i32
  %27 = sub i32 32, %26
  %28 = lshr i32 %25, %27
  %29 = zext i32 %28 to i64
  %notmask.i = shl nsw i32 -1, %26
  %30 = xor i32 %notmask.i, -1
  %31 = zext nneg i32 %30 to i64
  %32 = getelementptr inbounds nuw %struct.nghttp2_map_bucket, ptr %23, i64 %29
  %33 = getelementptr inbounds nuw i8, ptr %32, i64 8
  %34 = load ptr, ptr %33, align 8, !tbaa !13
  %35 = icmp eq ptr %34, null
  br i1 %35, label %.loopexit, label %.lr.ph.i

.lr.ph.i:                                         ; preds = %22, %44
  %36 = phi ptr [ %50, %44 ], [ %34, %22 ]
  %37 = phi ptr [ %49, %44 ], [ %33, %22 ]
  %38 = phi ptr [ %48, %44 ], [ %32, %22 ]
  %.01537.i = phi i64 [ %47, %44 ], [ %29, %22 ]
  %.sroa.0.036.i = phi i32 [ %45, %44 ], [ 0, %22 ]
  %.sroa.9.035.i = phi i32 [ %.sroa.9.1.i, %44 ], [ %1, %22 ]
  %.sroa.10.034.i = phi ptr [ %.sroa.10.1.i, %44 ], [ %2, %22 ]
  %39 = load i32, ptr %38, align 8, !tbaa !21
  %40 = icmp ugt i32 %.sroa.0.036.i, %39
  %.sroa.4.0..sroa_idx.i = getelementptr inbounds nuw i8, ptr %38, i64 4
  %.sroa.4.0.copyload.i = load i32, ptr %.sroa.4.0..sroa_idx.i, align 4, !tbaa !23
  br i1 %40, label %41, label %42

41:                                               ; preds = %.lr.ph.i
  store i32 %.sroa.0.036.i, ptr %38, align 8, !tbaa !23
  store i32 %.sroa.9.035.i, ptr %.sroa.4.0..sroa_idx.i, align 4, !tbaa !23
  store ptr %.sroa.10.034.i, ptr %37, align 8, !tbaa !24
  br label %44

42:                                               ; preds = %.lr.ph.i
  %43 = icmp eq i32 %.sroa.4.0.copyload.i, %1
  br i1 %43, label %insert.exit, label %44

44:                                               ; preds = %42, %41
  %.sroa.10.1.i = phi ptr [ %36, %41 ], [ %.sroa.10.034.i, %42 ]
  %.sroa.9.1.i = phi i32 [ %.sroa.4.0.copyload.i, %41 ], [ %.sroa.9.035.i, %42 ]
  %.sroa.0.1.i = phi i32 [ %39, %41 ], [ %.sroa.0.036.i, %42 ]
  %45 = add i32 %.sroa.0.1.i, 1
  %46 = add nuw nsw i64 %.01537.i, 1
  %47 = and i64 %46, %31
  %48 = getelementptr inbounds nuw %struct.nghttp2_map_bucket, ptr %23, i64 %47
  %49 = getelementptr inbounds nuw i8, ptr %48, i64 8
  %50 = load ptr, ptr %49, align 8, !tbaa !13
  %51 = icmp eq ptr %50, null
  br i1 %51, label %.loopexit, label %.lr.ph.i

.loopexit:                                        ; preds = %44, %22
  %.sroa.10.0.lcssa.i = phi ptr [ %2, %22 ], [ %.sroa.10.1.i, %44 ]
  %.sroa.9.0.lcssa.i = phi i32 [ %1, %22 ], [ %.sroa.9.1.i, %44 ]
  %.sroa.0.0.lcssa.i = phi i32 [ 0, %22 ], [ %45, %44 ]
  %.lcssa29.i = phi ptr [ %32, %22 ], [ %48, %44 ]
  %.lcssa.i = phi ptr [ %33, %22 ], [ %49, %44 ]
  store i32 %.sroa.0.0.lcssa.i, ptr %.lcssa29.i, align 8, !tbaa !23
  %.sroa.9.0..sroa_idx.i = getelementptr inbounds nuw i8, ptr %.lcssa29.i, i64 4
  store i32 %.sroa.9.0.lcssa.i, ptr %.sroa.9.0..sroa_idx.i, align 4, !tbaa !23
  store ptr %.sroa.10.0.lcssa.i, ptr %.lcssa.i, align 8, !tbaa !24
  %52 = load i64, ptr %6, align 8, !tbaa !11
  %53 = add i64 %52, 1
  store i64 %53, ptr %6, align 8, !tbaa !11
  br label %insert.exit

insert.exit:                                      ; preds = %42, %20, %17, %.loopexit
  %.0 = phi i32 [ 0, %.loopexit ], [ %19, %17 ], [ %21, %20 ], [ -501, %42 ]
  ret i32 %.0
}